#include <math.h>
#include <stdio.h>
#include <stdlib.h>
#include <string.h>

int main()
{
	int n , a[300] , shifouchuxian ;
	scanf("%d",&n);
	for(int i = 0;i<n;i++)
		scanf("%d",&a[i]);                             
	printf("%d",a[0]);
	for(int i = 1;i<n;i++)
	{
		shifouchuxian = 0;
		for(int j = 0;j<i;j++)
		{
			if(a[j] == a[i])                        				shifouchuxian += 1;                         		}
		if(shifouchuxian == 0)
			printf(",%d",a[i]);                       	}
	return 0;
}
